target datalayout = "e-m:e-p270:32:32-p271:32:32-p272:64:64-i64:64-i128:128-f80:128-n8:16:32:64-S128"
target triple = "x86_64-pc-linux-gnu"

%"class.cv::utils::trace::details::Region" = type <{ ptr, i32, [4 x i8] }>
%"class.cv::Point_" = type { i32, i32 }
%"class.cv::Size_" = type { i32, i32 }
%"struct.cv::Ptr" = type { %"class.std::shared_ptr" }
%"class.std::shared_ptr" = type { %"class.std::__shared_ptr" }
%"class.std::__shared_ptr" = type { ptr, %"class.std::__shared_count" }
%"class.std::__shared_count" = type { ptr }
%"class.cv::Mat" = type { i32, i32, i32, i32, ptr, ptr, ptr, ptr, ptr, ptr, %"struct.cv::MatSize", %"struct.cv::MatStep" }
%"struct.cv::MatSize" = type { ptr }
%"struct.cv::MatStep" = type { ptr, [2 x i64] }
%"class.cv::_InputArray" = type { i32, ptr, %"class.cv::Size_" }

; Function Attrs: mustprogress uwtable
define linkonce_odr hidden void @_ZNK2cv11_InputArray6getMatEi(ptr dead_on_unwind noalias writable sret(%"class.cv::Mat") align 8 %0, ptr noundef nonnull align 8 dereferenceable(24) %1, i32 noundef %2) #4 comdat align 2 {
  %4 = alloca ptr, align 8
  %5 = alloca ptr, align 8
  %6 = alloca i32, align 4
  store ptr %0, ptr %4, align 8
  store ptr %1, ptr %5, align 8
  store i32 %2, ptr %6, align 4
  %7 = load ptr, ptr %5, align 8
  %8 = call noundef i32 @_ZNK2cv11_InputArray4kindEv(ptr noundef nonnull align 8 dereferenceable(24) %7)
  %9 = icmp eq i32 %8, 65536
  br i1 %9, label %10, label %16

10:                                               ; preds = %3
  %11 = load i32, ptr %6, align 4
  %12 = icmp slt i32 %11, 0
  br i1 %12, label %13, label %16

13:                                               ; preds = %10
  %14 = getelementptr inbounds %"class.cv::_InputArray", ptr %7, i32 0, i32 1
  %15 = load ptr, ptr %14, align 8
  call void @_ZN2cv3MatC1ERKS0_(ptr noundef nonnull align 8 dereferenceable(96) %0, ptr noundef nonnull align 8 dereferenceable(96) %15)
  br label %18

16:                                               ; preds = %10, %3
  %17 = load i32, ptr %6, align 4
  call void @_ZNK2cv11_InputArray7getMat_Ei(ptr dead_on_unwind writable sret(%"class.cv::Mat") align 8 %0, ptr noundef nonnull align 8 dereferenceable(24) %7, i32 noundef %17)
  br label %18

18:                                               ; preds = %16, %13
  ret void
}

; Function Attrs: mustprogress uwtable
define hidden void @_ZN2cv15getLinearFilterEiiRKNS_11_InputArrayENS_6Point_IiEEdi(ptr dead_on_unwind noalias writable sret(%"struct.cv::Ptr") align 8 %0, i32 noundef %1, i32 noundef %2, ptr noundef nonnull align 8 dereferenceable(24) %3, i64 %4, double noundef %5, i32 noundef %6) #4 personality ptr @__gxx_personality_v0 {
  %8 = alloca ptr, align 8
  %9 = alloca %"class.cv::Point_", align 4
  %10 = alloca i32, align 4
  %11 = alloca i32, align 4
  %12 = alloca ptr, align 8
  %13 = alloca double, align 8
  %14 = alloca i32, align 4
  %15 = alloca %"class.cv::utils::trace::details::Region", align 8
  %16 = alloca %"class.cv::Mat", align 8
  %17 = alloca ptr, align 8
  %18 = alloca i32, align 4
  %19 = alloca %"class.cv::Point_", align 4
  store ptr %0, ptr %8, align 8
  store i64 %4, ptr %9, align 4
  store i32 %1, ptr %10, align 4
  store i32 %2, ptr %11, align 4
  store ptr %3, ptr %12, align 8
  store double %5, ptr %13, align 8
  store i32 %6, ptr %14, align 4
  call void @_ZN2cv5utils5trace7details6RegionC1ERKNS3_21LocationStaticStorageE(ptr noundef nonnull align 8 dereferenceable(12) %15, ptr noundef nonnull align 8 dereferenceable(32) @_ZZN2cv15getLinearFilterEiiRKNS_11_InputArrayENS_6Point_IiEEdiE26__cv_trace_location_fn1118)
  %20 = load ptr, ptr %12, align 8
  invoke void @_ZNK2cv11_InputArray6getMatEi(ptr dead_on_unwind writable sret(%"class.cv::Mat") align 8 %16, ptr noundef nonnull align 8 dereferenceable(24) %20, i32 noundef -1)
          to label %21 unwind label %28

21:                                               ; preds = %7
  %22 = load i32, ptr %10, align 4
  %23 = load i32, ptr %11, align 4
  call void @llvm.memcpy.p0.p0.i64(ptr align 4 %19, ptr align 4 %9, i64 8, i1 false)
  %24 = load double, ptr %13, align 8
  %25 = load i32, ptr %14, align 4
  %26 = load i64, ptr %19, align 4
  invoke void @_ZN2cv12cpu_baseline15getLinearFilterEiiRKNS_3MatENS_6Point_IiEEdi(ptr dead_on_unwind writable sret(%"struct.cv::Ptr") align 8 %0, i32 noundef %22, i32 noundef %23, ptr noundef nonnull align 8 dereferenceable(96) %16, i64 %26, double noundef %24, i32 noundef %25)
          to label %27 unwind label %32

27:                                               ; preds = %21
  call void @_ZN2cv3MatD1Ev(ptr noundef nonnull align 8 dereferenceable(96) %16) #3
  call void @_ZN2cv5utils5trace7details6RegionD2Ev(ptr noundef nonnull align 8 dereferenceable(12) %15) #3
  ret void

28:                                               ; preds = %7
  %29 = landingpad { ptr, i32 }
          cleanup
  %30 = extractvalue { ptr, i32 } %29, 0
  store ptr %30, ptr %17, align 8
  %31 = extractvalue { ptr, i32 } %29, 1
  store i32 %31, ptr %18, align 4
  br label %36

32:                                               ; preds = %21
  %33 = landingpad { ptr, i32 }
          cleanup
  %34 = extractvalue { ptr, i32 } %33, 0
  store ptr %34, ptr %17, align 8
  %35 = extractvalue { ptr, i32 } %33, 1
  store i32 %35, ptr %18, align 4
  call void @_ZN2cv3MatD1Ev(ptr noundef nonnull align 8 dereferenceable(96) %16) #3
  br label %36

36:                                               ; preds = %32, %28
  call void @_ZN2cv5utils5trace7details6RegionD2Ev(ptr noundef nonnull align 8 dereferenceable(12) %15) #3
  br label %37

37:                                               ; preds = %36
  %38 = load ptr, ptr %17, align 8
  %39 = load i32, ptr %18, align 4
  %40 = insertvalue { ptr, i32 } poison, ptr %38, 0
  %41 = insertvalue { ptr, i32 } %40, i32 %39, 1
  resume { ptr, i32 } %41
}